target datalayout = "e-m:e-p270:32:32-p271:32:32-p272:64:64-i64:64-i128:128-f80:128-n8:16:32:64-S128"
target triple = "x86_64-pc-linux-gnu"

@hf_ipmi_se_21_rid = internal global i32 0, align 4
@hf_ipmi_se_21_record = internal global i32 0, align 4
@hf_ipmi_se_21_offset = internal global i32 0, align 4
@hf_ipmi_se_21_len = internal global i32 0, align 4
@.str.1154 = private unnamed_addr constant [1 x i8] zeroinitializer, align 1
@.str.1170 = private unnamed_addr constant [5 x i8] c"%u%s\00", align 1
@.str.1171 = private unnamed_addr constant [16 x i8] c"(entire record)\00", align 1

; Function Attrs: null_pointer_is_valid sspstrong uwtable
define internal void @rq21(ptr noundef %0, ptr noundef %1, ptr noundef %2) #0 {
  %4 = alloca ptr, align 8
  %5 = alloca ptr, align 8
  %6 = alloca ptr, align 8
  %7 = alloca i8, align 1
  store ptr %0, ptr %4, align 8
  store ptr %1, ptr %5, align 8
  store ptr %2, ptr %6, align 8
  call void @llvm.lifetime.start.p0(i64 1, ptr %7) #5
  %8 = load ptr, ptr %4, align 8
  %9 = call zeroext i8 @tvb_get_uint8(ptr noundef %8, i32 noundef 5)
  store i8 %9, ptr %7, align 1
  %10 = load ptr, ptr %6, align 8
  %11 = load i32, ptr @hf_ipmi_se_21_rid, align 4
  %12 = load ptr, ptr %4, align 8
  %13 = call ptr @proto_tree_add_item(ptr noundef %10, i32 noundef %11, ptr noundef %12, i32 noundef 0, i32 noundef 2, i32 noundef -2147483648)
  %14 = load ptr, ptr %6, align 8
  %15 = load i32, ptr @hf_ipmi_se_21_record, align 4
  %16 = load ptr, ptr %4, align 8
  %17 = call ptr @proto_tree_add_item(ptr noundef %14, i32 noundef %15, ptr noundef %16, i32 noundef 2, i32 noundef 2, i32 noundef -2147483648)
  %18 = load ptr, ptr %6, align 8
  %19 = load i32, ptr @hf_ipmi_se_21_offset, align 4
  %20 = load ptr, ptr %4, align 8
  %21 = call ptr @proto_tree_add_item(ptr noundef %18, i32 noundef %19, ptr noundef %20, i32 noundef 4, i32 noundef 1, i32 noundef -2147483648)
  %22 = load ptr, ptr %6, align 8
  %23 = load i32, ptr @hf_ipmi_se_21_len, align 4
  %24 = load ptr, ptr %4, align 8
  %25 = load i8, ptr %7, align 1
  %26 = zext i8 %25 to i32
  %27 = load i8, ptr %7, align 1
  %28 = zext i8 %27 to i32
  %29 = load i8, ptr %7, align 1
  %30 = zext i8 %29 to i32
  %31 = icmp eq i32 %30, 255
  %32 = select i1 %31, ptr @.str.1171, ptr @.str.1154
  %33 = call ptr (ptr, i32, ptr, i32, i32, i32, ptr, ...) @proto_tree_add_uint_format_value(ptr noundef %22, i32 noundef %23, ptr noundef %24, i32 noundef 5, i32 noundef 1, i32 noundef %26, ptr noundef @.str.1170, i32 noundef %28, ptr noundef %32)
  call void @llvm.lifetime.end.p0(i64 1, ptr %7) #5
  ret void
}