; Function Attrs: null_pointer_is_valid sspstrong uwtable
define internal void @rq21(ptr noundef %0, ptr readnone captures(none) %1, ptr noundef %2) #0 {
  %4 = tail call zeroext i8 @tvb_get_uint8(ptr noundef %0, i32 noundef 5)
  %5 = load i32, ptr @hf_ipmi_se_21_rid, align 4
  %6 = tail call ptr @proto_tree_add_item(ptr noundef %2, i32 noundef %5, ptr noundef %0, i32 noundef 0, i32 noundef 2, i32 noundef -2147483648)
  %7 = load i32, ptr @hf_ipmi_se_21_record, align 4
  %8 = tail call ptr @proto_tree_add_item(ptr noundef %2, i32 noundef %7, ptr noundef %0, i32 noundef 2, i32 noundef 2, i32 noundef -2147483648)
  %9 = load i32, ptr @hf_ipmi_se_21_offset, align 4
  %10 = tail call ptr @proto_tree_add_item(ptr noundef %2, i32 noundef %9, ptr noundef %0, i32 noundef 4, i32 noundef 1, i32 noundef -2147483648)
  %11 = load i32, ptr @hf_ipmi_se_21_len, align 4
  %12 = zext i8 %4 to i32
  %13 = icmp eq i8 %4, -1
  %14 = select i1 %13, ptr @.str.1171, ptr @.str.1154
  %15 = tail call ptr (ptr, i32, ptr, i32, i32, i32, ptr, ...) @proto_tree_add_uint_format_value(ptr noundef %2, i32 noundef %11, ptr noundef %0, i32 noundef 5, i32 noundef 1, i32 noundef %12, ptr noundef nonnull @.str.1170, i32 noundef %12, ptr noundef nonnull %14)
  ret void
}